; Function Attrs: cold nounwind optsize uwtable
define internal i32 @ff_tx_mdct_init_int32_c(ptr noundef initializes((140, 152)) %0, ptr readnone captures(none) %1, i64 noundef %2, ptr readnone captures(none) %3, i32 noundef %4, i32 noundef %5, ptr noundef %6) #0 {
  %8 = alloca %struct.FFTXCodeletOptions, align 4
  call void @llvm.lifetime.start.p0(i64 4, ptr nonnull %8) #16
  %.not = icmp eq i32 %5, 0
  %9 = select i1 %.not, i32 2, i32 1
  store i32 %9, ptr %8, align 4, !tbaa !58
  %10 = load float, ptr %6, align 4, !tbaa !82
  %11 = fpext nsz float %10 to double
  %12 = getelementptr inbounds nuw i8, ptr %0, i64 144
  store double %11, ptr %12, align 8, !tbaa !25
  %13 = getelementptr inbounds nuw i8, ptr %0, i64 140
  store float %10, ptr %13, align 4, !tbaa !83
  %14 = and i64 %2, 6917529027641081854
  %15 = or disjoint i64 %14, 2305843009213693953
  %16 = ashr i32 %4, 1
  %17 = call i32 @ff_tx_init_subtx(ptr noundef %0, i32 noundef 4, i64 noundef %15, ptr noundef nonnull %8, i32 noundef %16, i32 noundef %5, ptr noundef nonnull %6) #16
  %.not48 = icmp eq i32 %17, 0
  br i1 %.not48, label %21, label %18

18:                                               ; preds = %7
  %19 = or disjoint i64 %14, 1
  %20 = call i32 @ff_tx_init_subtx(ptr noundef nonnull %0, i32 noundef 4, i64 noundef %19, ptr noundef nonnull %8, i32 noundef %16, i32 noundef %5, ptr noundef nonnull %6) #16
  %.not49 = icmp eq i32 %20, 0
  br i1 %.not49, label %21, label %.loopexit

21:                                               ; preds = %18, %7
  %22 = sext i32 %16 to i64
  %23 = shl nsw i64 %22, 2
  %24 = call noalias ptr @av_malloc(i64 noundef %23) #16
  %25 = getelementptr inbounds nuw i8, ptr %0, i64 8
  store ptr %24, ptr %25, align 8, !tbaa !56
  %.not50 = icmp eq ptr %24, null
  br i1 %.not50, label %.loopexit, label %26

26:                                               ; preds = %21
  %27 = getelementptr inbounds nuw i8, ptr %0, i64 32
  %28 = load ptr, ptr %27, align 8, !tbaa !55
  %29 = getelementptr inbounds nuw i8, ptr %28, i64 128
  %30 = load i64, ptr %29, align 8, !tbaa !53
  %31 = and i64 %30, 2305843009213693952
  %.not51 = icmp eq i64 %31, 0
  br i1 %.not51, label %.preheader53, label %33

.preheader53:                                     ; preds = %26
  %32 = icmp sgt i32 %16, 0
  br i1 %32, label %.lr.ph.preheader, label %.loopexit54

.lr.ph.preheader:                                 ; preds = %.preheader53
  %wide.trip.count = zext nneg i32 %16 to i64
  br label %.lr.ph

33:                                               ; preds = %26
  %34 = getelementptr inbounds nuw i8, ptr %28, i64 8
  %35 = load ptr, ptr %34, align 8, !tbaa !56
  call void @llvm.memcpy.p0.p0.i64(ptr nonnull align 4 %24, ptr align 4 %35, i64 %23, i1 false)
  br label %.loopexit54

.lr.ph:                                           ; preds = %.lr.ph.preheader, %.lr.ph
  %indvars.iv = phi i64 [ 0, %.lr.ph.preheader ], [ %indvars.iv.next, %.lr.ph ]
  %36 = getelementptr inbounds nuw i32, ptr %24, i64 %indvars.iv
  %37 = trunc nuw nsw i64 %indvars.iv to i32
  store i32 %37, ptr %36, align 4, !tbaa !10
  %indvars.iv.next = add nuw nsw i64 %indvars.iv, 1
  %exitcond.not = icmp eq i64 %indvars.iv.next, %wide.trip.count
  br i1 %exitcond.not, label %.loopexit54, label %.lr.ph, !llvm.loop !84

.loopexit54:                                      ; preds = %.lr.ph, %.preheader53, %33
  %spec.select = select i1 %.not, ptr null, ptr %24
  %38 = call i32 @ff_tx_mdct_gen_exp_int32(ptr noundef nonnull %0, ptr noundef %spec.select)
  %.not52 = icmp ne i32 %38, 0
  %brmerge = or i1 %.not, %.not52
  br i1 %brmerge, label %.loopexit, label %.preheader

.preheader:                                       ; preds = %.loopexit54
  %39 = load i32, ptr %0, align 8, !tbaa !16
  %40 = icmp sgt i32 %39, 1
  br i1 %40, label %.lr.ph57, label %.loopexit

.lr.ph57:                                         ; preds = %.preheader
  %41 = load ptr, ptr %25, align 8, !tbaa !56
  br label %42

42:                                               ; preds = %.lr.ph57, %42
  %indvars.iv59 = phi i64 [ 0, %.lr.ph57 ], [ %indvars.iv.next60, %42 ]
  %43 = getelementptr inbounds nuw i32, ptr %41, i64 %indvars.iv59
  %44 = load i32, ptr %43, align 4, !tbaa !10
  %45 = shl i32 %44, 1
  store i32 %45, ptr %43, align 4, !tbaa !10
  %indvars.iv.next60 = add nuw nsw i64 %indvars.iv59, 1
  %46 = load i32, ptr %0, align 8, !tbaa !16
  %47 = ashr i32 %46, 1
  %48 = sext i32 %47 to i64
  %49 = icmp slt i64 %indvars.iv.next60, %48
  br i1 %49, label %42, label %.loopexit, !llvm.loop !85

.loopexit:                                        ; preds = %42, %.preheader, %.loopexit54, %21, %18
  %.044 = phi i32 [ %20, %18 ], [ -12, %21 ], [ %38, %.loopexit54 ], [ 0, %.preheader ], [ 0, %42 ]
  call void @llvm.lifetime.end.p0(i64 4, ptr nonnull %8) #16
  ret i32 %.044
}